target datalayout = "e-m:e-p270:32:32-p271:32:32-p272:64:64-i64:64-i128:128-f80:128-n8:16:32:64-S128"
target triple = "x86_64-pc-linux-gnu"

%class.dtObstacleAvoidanceQuery = type <{ %struct.dtObstacleAvoidanceParams, float, float, float, i32, [4 x i8], ptr, i32, i32, ptr, i32, [4 x i8] }>
%struct.dtObstacleAvoidanceParams = type { float, float, float, float, float, float, i8, i8, i8, i8 }

; Function Attrs: mustprogress uwtable
define noundef zeroext i1 @_ZN24dtObstacleAvoidanceQuery4initEii(ptr noundef nonnull align 8 dereferenceable(76) %0, i32 noundef %1, i32 noundef %2) #0 align 2 {
  %4 = alloca i1, align 1
  %5 = alloca ptr, align 8
  %6 = alloca i32, align 4
  %7 = alloca i32, align 4
  store ptr %0, ptr %5, align 8
  store i32 %1, ptr %6, align 4
  store i32 %2, ptr %7, align 4
  %8 = load ptr, ptr %5, align 8
  %9 = load i32, ptr %6, align 4
  %10 = getelementptr inbounds %class.dtObstacleAvoidanceQuery, ptr %8, i32 0, i32 4
  store i32 %9, ptr %10, align 8
  %11 = getelementptr inbounds %class.dtObstacleAvoidanceQuery, ptr %8, i32 0, i32 7
  store i32 0, ptr %11, align 8
  %12 = getelementptr inbounds %class.dtObstacleAvoidanceQuery, ptr %8, i32 0, i32 4
  %13 = load i32, ptr %12, align 8
  %14 = sext i32 %13 to i64
  %15 = mul i64 64, %14
  %16 = call noundef ptr @_Z7dtAllocm11dtAllocHint(i64 noundef %15, i32 noundef 0)
  %17 = getelementptr inbounds %class.dtObstacleAvoidanceQuery, ptr %8, i32 0, i32 6
  store ptr %16, ptr %17, align 8
  %18 = getelementptr inbounds %class.dtObstacleAvoidanceQuery, ptr %8, i32 0, i32 6
  %19 = load ptr, ptr %18, align 8
  %20 = icmp ne ptr %19, null
  br i1 %20, label %22, label %21

21:                                               ; preds = %3
  store i1 false, ptr %4, align 1
  br label %49

22:                                               ; preds = %3
  %23 = getelementptr inbounds %class.dtObstacleAvoidanceQuery, ptr %8, i32 0, i32 6
  %24 = load ptr, ptr %23, align 8
  %25 = getelementptr inbounds %class.dtObstacleAvoidanceQuery, ptr %8, i32 0, i32 4
  %26 = load i32, ptr %25, align 8
  %27 = sext i32 %26 to i64
  %28 = mul i64 64, %27
  call void @llvm.memset.p0.i64(ptr align 4 %24, i8 0, i64 %28, i1 false)
  %29 = load i32, ptr %7, align 4
  %30 = getelementptr inbounds %class.dtObstacleAvoidanceQuery, ptr %8, i32 0, i32 8
  store i32 %29, ptr %30, align 4
  %31 = getelementptr inbounds %class.dtObstacleAvoidanceQuery, ptr %8, i32 0, i32 10
  store i32 0, ptr %31, align 8
  %32 = getelementptr inbounds %class.dtObstacleAvoidanceQuery, ptr %8, i32 0, i32 8
  %33 = load i32, ptr %32, align 4
  %34 = sext i32 %33 to i64
  %35 = mul i64 28, %34
  %36 = call noundef ptr @_Z7dtAllocm11dtAllocHint(i64 noundef %35, i32 noundef 0)
  %37 = getelementptr inbounds %class.dtObstacleAvoidanceQuery, ptr %8, i32 0, i32 9
  store ptr %36, ptr %37, align 8
  %38 = getelementptr inbounds %class.dtObstacleAvoidanceQuery, ptr %8, i32 0, i32 9
  %39 = load ptr, ptr %38, align 8
  %40 = icmp ne ptr %39, null
  br i1 %40, label %42, label %41

41:                                               ; preds = %22
  store i1 false, ptr %4, align 1
  br label %49

42:                                               ; preds = %22
  %43 = getelementptr inbounds %class.dtObstacleAvoidanceQuery, ptr %8, i32 0, i32 9
  %44 = load ptr, ptr %43, align 8
  %45 = getelementptr inbounds %class.dtObstacleAvoidanceQuery, ptr %8, i32 0, i32 8
  %46 = load i32, ptr %45, align 4
  %47 = sext i32 %46 to i64
  %48 = mul i64 28, %47
  call void @llvm.memset.p0.i64(ptr align 4 %44, i8 0, i64 %48, i1 false)
  store i1 true, ptr %4, align 1
  br label %49

49:                                               ; preds = %42, %41, %21
  %50 = load i1, ptr %4, align 1
  ret i1 %50
}