; Function Attrs: mustprogress uwtable
define noundef zeroext i1 @_ZN24dtObstacleAvoidanceQuery4initEii(ptr noundef nonnull align 8 captures(none) dereferenceable(76) initializes((40, 44), (48, 60)) %0, i32 noundef %1, i32 noundef %2) local_unnamed_addr #0 align 2 {
  %4 = getelementptr inbounds nuw i8, ptr %0, i64 40
  store i32 %1, ptr %4, align 8
  %5 = getelementptr inbounds nuw i8, ptr %0, i64 56
  store i32 0, ptr %5, align 8
  %6 = sext i32 %1 to i64
  %7 = shl nsw i64 %6, 6
  %8 = tail call noundef ptr @_Z7dtAllocm11dtAllocHint(i64 noundef %7, i32 noundef 0)
  %9 = getelementptr inbounds nuw i8, ptr %0, i64 48
  store ptr %8, ptr %9, align 8
  %.not = icmp eq ptr %8, null
  br i1 %.not, label %24, label %10

10:                                               ; preds = %3
  %11 = load i32, ptr %4, align 8
  %12 = sext i32 %11 to i64
  %13 = shl nsw i64 %12, 6
  tail call void @llvm.memset.p0.i64(ptr nonnull align 4 %8, i8 0, i64 %13, i1 false)
  %14 = getelementptr inbounds nuw i8, ptr %0, i64 60
  store i32 %2, ptr %14, align 4
  %15 = getelementptr inbounds nuw i8, ptr %0, i64 72
  store i32 0, ptr %15, align 8
  %16 = sext i32 %2 to i64
  %17 = mul nsw i64 %16, 28
  %18 = tail call noundef ptr @_Z7dtAllocm11dtAllocHint(i64 noundef %17, i32 noundef 0)
  %19 = getelementptr inbounds nuw i8, ptr %0, i64 64
  store ptr %18, ptr %19, align 8
  %.not5 = icmp eq ptr %18, null
  br i1 %.not5, label %24, label %20

20:                                               ; preds = %10
  %21 = load i32, ptr %14, align 4
  %22 = sext i32 %21 to i64
  %23 = mul nsw i64 %22, 28
  tail call void @llvm.memset.p0.i64(ptr nonnull align 4 %18, i8 0, i64 %23, i1 false)
  br label %24

24:                                               ; preds = %10, %3, %20
  %.0 = phi i1 [ true, %20 ], [ false, %3 ], [ false, %10 ]
  ret i1 %.0
}